target datalayout = "e-m:e-p270:32:32-p271:32:32-p272:64:64-i64:64-i128:128-f80:128-n8:16:32:64-S128"
target triple = "x86_64-pc-linux-gnu"

%"class.std::__weak_count" = type { ptr }
%"class.duckdb::weak_ptr.343" = type { %"class.std::weak_ptr.344" }
%"class.std::weak_ptr.344" = type { %"class.std::__weak_ptr.345" }
%"class.std::__weak_ptr.345" = type { ptr, %"class.std::__weak_count" }
%"class.duckdb::InterruptState" = type { i8, %"class.duckdb::weak_ptr.343", %"class.duckdb::weak_ptr.723" }
%"class.duckdb::weak_ptr.723" = type { %"class.std::weak_ptr.724" }
%"class.std::weak_ptr.724" = type { %"class.std::__weak_ptr.725" }
%"class.std::__weak_ptr.725" = type { ptr, %"class.std::__weak_count" }

; Function Attrs: mustprogress nounwind uwtable
define linkonce_odr void @_ZNSt12__weak_countILN9__gnu_cxx12_Lock_policyE2EEC2EOS2_(ptr noundef nonnull align 8 dereferenceable(8) %0, ptr noundef nonnull align 8 dereferenceable(8) %1) unnamed_addr #1 comdat align 2 {
  %3 = alloca ptr, align 8
  %4 = alloca ptr, align 8
  store ptr %0, ptr %3, align 8, !tbaa !1396
  store ptr %1, ptr %4, align 8, !tbaa !1396
  %5 = load ptr, ptr %3, align 8
  %6 = getelementptr inbounds nuw %"class.std::__weak_count", ptr %5, i32 0, i32 0
  %7 = load ptr, ptr %4, align 8, !tbaa !1396
  %8 = getelementptr inbounds nuw %"class.std::__weak_count", ptr %7, i32 0, i32 0
  %9 = load ptr, ptr %8, align 8, !tbaa !1398
  store ptr %9, ptr %6, align 8, !tbaa !1398
  %10 = load ptr, ptr %4, align 8, !tbaa !1396
  %11 = getelementptr inbounds nuw %"class.std::__weak_count", ptr %10, i32 0, i32 0
  store ptr null, ptr %11, align 8, !tbaa !1398
  ret void
}

; Function Attrs: mustprogress nounwind uwtable
define linkonce_odr void @_ZNSt12__weak_countILN9__gnu_cxx12_Lock_policyE2EEC2Ev(ptr noundef nonnull align 8 dereferenceable(8) %0) unnamed_addr #1 comdat align 2 {
  %2 = alloca ptr, align 8
  store ptr %0, ptr %2, align 8, !tbaa !1396
  %3 = load ptr, ptr %2, align 8
  %4 = getelementptr inbounds nuw %"class.std::__weak_count", ptr %3, i32 0, i32 0
  store ptr null, ptr %4, align 8, !tbaa !1398
  ret void
}

; Function Attrs: mustprogress nounwind uwtable
define linkonce_odr void @_ZNSt10__weak_ptrIN6duckdb24InterruptDoneSignalStateELN9__gnu_cxx12_Lock_policyE2EEC2EOS4_(ptr noundef nonnull align 8 dereferenceable(16) %0, ptr noundef nonnull align 8 dereferenceable(16) %1) unnamed_addr #1 comdat align 2 {
  %3 = alloca ptr, align 8
  %4 = alloca ptr, align 8
  store ptr %0, ptr %3, align 8, !tbaa !2134
  store ptr %1, ptr %4, align 8, !tbaa !2134
  %5 = load ptr, ptr %3, align 8
  %6 = getelementptr inbounds nuw %"class.std::__weak_ptr.725", ptr %5, i32 0, i32 0
  %7 = load ptr, ptr %4, align 8, !tbaa !2134
  %8 = getelementptr inbounds nuw %"class.std::__weak_ptr.725", ptr %7, i32 0, i32 0
  %9 = load ptr, ptr %8, align 8, !tbaa !2183
  store ptr %9, ptr %6, align 8, !tbaa !2183
  %10 = getelementptr inbounds nuw %"class.std::__weak_ptr.725", ptr %5, i32 0, i32 1
  %11 = load ptr, ptr %4, align 8, !tbaa !2134
  %12 = getelementptr inbounds nuw %"class.std::__weak_ptr.725", ptr %11, i32 0, i32 1
  call void @_ZNSt12__weak_countILN9__gnu_cxx12_Lock_policyE2EEC2EOS2_(ptr noundef nonnull align 8 dereferenceable(8) %10, ptr noundef nonnull align 8 dereferenceable(8) %12) #24
  %13 = load ptr, ptr %4, align 8, !tbaa !2134
  %14 = getelementptr inbounds nuw %"class.std::__weak_ptr.725", ptr %13, i32 0, i32 0
  store ptr null, ptr %14, align 8, !tbaa !2183
  ret void
}

; Function Attrs: mustprogress nounwind uwtable
define linkonce_odr void @_ZNSt10__weak_ptrIN6duckdb4TaskELN9__gnu_cxx12_Lock_policyE2EEC2Ev(ptr noundef nonnull align 8 dereferenceable(16) %0) unnamed_addr #1 comdat align 2 {
  %2 = alloca ptr, align 8
  store ptr %0, ptr %2, align 8, !tbaa !1908
  %3 = load ptr, ptr %2, align 8
  %4 = getelementptr inbounds nuw %"class.std::__weak_ptr.345", ptr %3, i32 0, i32 0
  store ptr null, ptr %4, align 8, !tbaa !2180
  %5 = getelementptr inbounds nuw %"class.std::__weak_ptr.345", ptr %3, i32 0, i32 1
  call void @_ZNSt12__weak_countILN9__gnu_cxx12_Lock_policyE2EEC2Ev(ptr noundef nonnull align 8 dereferenceable(8) %5) #24
  ret void
}

; Function Attrs: mustprogress nounwind uwtable
define linkonce_odr void @_ZNSt8weak_ptrIN6duckdb24InterruptDoneSignalStateEEC2EOS2_(ptr noundef nonnull align 8 dereferenceable(16) %0, ptr noundef nonnull align 8 dereferenceable(16) %1) unnamed_addr #1 comdat align 2 {
  %3 = alloca ptr, align 8
  %4 = alloca ptr, align 8
  store ptr %0, ptr %3, align 8, !tbaa !2181
  store ptr %1, ptr %4, align 8, !tbaa !2181
  %5 = load ptr, ptr %3, align 8
  %6 = load ptr, ptr %4, align 8, !tbaa !2181
  call void @_ZNSt10__weak_ptrIN6duckdb24InterruptDoneSignalStateELN9__gnu_cxx12_Lock_policyE2EEC2EOS4_(ptr noundef nonnull align 8 dereferenceable(16) %5, ptr noundef nonnull align 8 dereferenceable(16) %6) #24
  ret void
}

; Function Attrs: mustprogress nounwind uwtable
define linkonce_odr void @_ZNSt8weak_ptrIN6duckdb4TaskEEC2Ev(ptr noundef nonnull align 8 dereferenceable(16) %0) unnamed_addr #1 comdat align 2 {
  %2 = alloca ptr, align 8
  store ptr %0, ptr %2, align 8, !tbaa !2178
  %3 = load ptr, ptr %2, align 8
  call void @_ZNSt10__weak_ptrIN6duckdb4TaskELN9__gnu_cxx12_Lock_policyE2EEC2Ev(ptr noundef nonnull align 8 dereferenceable(16) %3) #24
  ret void
}

; Function Attrs: mustprogress nounwind uwtable
define linkonce_odr void @_ZN6duckdb8weak_ptrINS_24InterruptDoneSignalStateELb1EEC2EOS2_(ptr noundef nonnull align 8 dereferenceable(16) %0, ptr noundef nonnull align 8 dereferenceable(16) %1) unnamed_addr #1 comdat align 2 {
  %3 = alloca ptr, align 8
  %4 = alloca ptr, align 8
  store ptr %0, ptr %3, align 8, !tbaa !705
  store ptr %1, ptr %4, align 8, !tbaa !705
  %5 = load ptr, ptr %3, align 8
  %6 = getelementptr inbounds nuw %"class.duckdb::weak_ptr.723", ptr %5, i32 0, i32 0
  %7 = load ptr, ptr %4, align 8, !tbaa !705
  %8 = getelementptr inbounds nuw %"class.duckdb::weak_ptr.723", ptr %7, i32 0, i32 0
  call void @_ZNSt8weak_ptrIN6duckdb24InterruptDoneSignalStateEEC2EOS2_(ptr noundef nonnull align 8 dereferenceable(16) %6, ptr noundef nonnull align 8 dereferenceable(16) %8) #24
  ret void
}

; Function Attrs: mustprogress nounwind uwtable
define linkonce_odr void @_ZN6duckdb8weak_ptrINS_4TaskELb1EEC2Ev(ptr noundef nonnull align 8 dereferenceable(16) %0) unnamed_addr #1 comdat align 2 {
  %2 = alloca ptr, align 8
  store ptr %0, ptr %2, align 8, !tbaa !703
  %3 = load ptr, ptr %2, align 8
  %4 = getelementptr inbounds nuw %"class.duckdb::weak_ptr.343", ptr %3, i32 0, i32 0
  call void @llvm.memset.p0.i64(ptr align 8 %4, i8 0, i64 16, i1 false)
  call void @_ZNSt8weak_ptrIN6duckdb4TaskEEC2Ev(ptr noundef nonnull align 8 dereferenceable(16) %4) #24
  ret void
}

; Function Attrs: mustprogress uwtable
define void @_ZN6duckdb14InterruptStateC2ENS_8weak_ptrINS_24InterruptDoneSignalStateELb1EEE(ptr noundef nonnull align 8 dereferenceable(40) %0, ptr noundef %1) unnamed_addr #0 align 2 {
  %3 = alloca ptr, align 8
  %4 = alloca ptr, align 8
  store ptr %0, ptr %3, align 8, !tbaa !694
  store ptr %1, ptr %4, align 8, !tbaa !705
  %5 = load ptr, ptr %3, align 8
  %6 = getelementptr inbounds nuw %"class.duckdb::InterruptState", ptr %5, i32 0, i32 0
  store i8 2, ptr %6, align 8, !tbaa !696
  %7 = getelementptr inbounds nuw %"class.duckdb::InterruptState", ptr %5, i32 0, i32 1
  call void @_ZN6duckdb8weak_ptrINS_4TaskELb1EEC2Ev(ptr noundef nonnull align 8 dereferenceable(16) %7)
  %8 = getelementptr inbounds nuw %"class.duckdb::InterruptState", ptr %5, i32 0, i32 2
  call void @_ZN6duckdb8weak_ptrINS_24InterruptDoneSignalStateELb1EEC2EOS2_(ptr noundef nonnull align 8 dereferenceable(16) %8, ptr noundef nonnull align 8 dereferenceable(16) %1) #24
  ret void
}