; Function Attrs: mustprogress nofree norecurse nosync nounwind willreturn memory(argmem: readwrite) uwtable
define void @_ZN6duckdb14InterruptStateC2ENS_8weak_ptrINS_24InterruptDoneSignalStateELb1EEE(ptr noundef nonnull writeonly align 8 captures(none) dereferenceable(40) initializes((0, 1), (8, 40)) %0, ptr noundef captures(none) %1) unnamed_addr #8 align 2 {
  store i8 2, ptr %0, align 8, !tbaa !666
  %3 = getelementptr inbounds nuw i8, ptr %0, i64 8
  tail call void @llvm.memset.p0.i64(ptr noundef nonnull align 8 dereferenceable(16) %3, i8 0, i64 16, i1 false)
  %4 = getelementptr inbounds nuw i8, ptr %0, i64 24
  %5 = load ptr, ptr %1, align 8, !tbaa !673
  store ptr %5, ptr %4, align 8, !tbaa !673
  %6 = getelementptr inbounds nuw i8, ptr %0, i64 32
  %7 = getelementptr inbounds nuw i8, ptr %1, i64 8
  %8 = load ptr, ptr %7, align 8, !tbaa !67
  store ptr %8, ptr %6, align 8, !tbaa !67
  tail call void @llvm.memset.p0.i64(ptr noundef nonnull align 8 dereferenceable(16) %1, i8 0, i64 16, i1 false)
  ret void
}